target datalayout = "e-m:e-p270:32:32-p271:32:32-p272:64:64-i64:64-i128:128-f80:128-n8:16:32:64-S128"
target triple = "x86_64-pc-linux-gnu"

%struct.rb_code_location_struct = type { %struct.rb_code_position_struct, %struct.rb_code_position_struct }
%struct.rb_code_position_struct = type { i32, i32 }
%struct.rb_iseq_struct = type { i64, i64, ptr, %union.anon.13 }
%union.anon.13 = type { %struct.anon.14 }
%struct.anon.14 = type { i64, i32 }
%struct.rb_iseq_constant_body = type { i32, i32, ptr, %struct.anon.16, %struct.rb_iseq_location_struct, %struct.iseq_insn_info, ptr, ptr, ptr, ptr, ptr, ptr, %struct.anon.17, i32, i32, i32, i32, i32, i32, i32, i32, i8, %union.anon.18, ptr, ptr, ptr, i64, ptr, i64, ptr, i64 }
%struct.anon.16 = type { %struct.anon, i32, i32, i32, i32, i32, i32, i32, ptr, ptr }
%struct.anon = type { i16, [2 x i8] }
%struct.rb_iseq_location_struct = type { i64, i64, i64, i32, i32, %struct.rb_code_location_struct }
%struct.iseq_insn_info = type { ptr, ptr, i32, ptr }
%struct.anon.17 = type { i64, i64, i64, i64, ptr }
%union.anon.18 = type { ptr }
%union.iseq_inline_storage_entry = type { %struct.anon.21 }
%struct.anon.21 = type { ptr, i64 }
%struct.RBasic = type { i64, i64 }
%struct.iseq_inline_iv_cache_entry = type { i64, i64 }
%struct.RClass_and_rb_classext_t = type { %struct.RClass, %struct.rb_classext_struct }
%struct.RClass = type { %struct.RBasic, i64, ptr }
%struct.rb_classext_struct = type { ptr, ptr, ptr, ptr, ptr, i64, ptr, ptr, ptr, ptr, i64, i64, %union.anon.28, i64, i32, i8, i8, i64 }
%union.anon.28 = type { %struct.anon.29 }
%struct.anon.29 = type { ptr }

; Function Attrs: nounwind sspstrong uwtable
define dso_local i32 @rb_estimate_iv_count(i64 noundef %0, ptr noundef %1) #0 {
  %3 = alloca i64, align 8
  %4 = alloca ptr, align 8
  %5 = alloca ptr, align 8
  %6 = alloca i32, align 4
  %7 = alloca ptr, align 8
  %8 = alloca i32, align 4
  %9 = alloca i64, align 8
  store i64 %0, ptr %3, align 8, !tbaa !17
  store ptr %1, ptr %4, align 8, !tbaa !7
  call void @llvm.lifetime.start.p0(i64 8, ptr %5) #24
  %10 = call ptr @rb_id_table_create(i64 noundef 0)
  store ptr %10, ptr %5, align 8, !tbaa !312
  call void @llvm.lifetime.start.p0(i64 4, ptr %6) #24
  store i32 0, ptr %6, align 4, !tbaa !56
  br label %11

11:                                               ; preds = %40, %2
  %12 = load i32, ptr %6, align 4, !tbaa !56
  %13 = load ptr, ptr %4, align 8, !tbaa !7
  %14 = getelementptr inbounds nuw %struct.rb_iseq_struct, ptr %13, i32 0, i32 2
  %15 = load ptr, ptr %14, align 8, !tbaa !12
  %16 = getelementptr inbounds nuw %struct.rb_iseq_constant_body, ptr %15, i32 0, i32 16
  %17 = load i32, ptr %16, align 4, !tbaa !60
  %18 = icmp ult i32 %12, %17
  br i1 %18, label %20, label %19

19:                                               ; preds = %11
  call void @llvm.lifetime.end.p0(i64 4, ptr %6) #24
  br label %43

20:                                               ; preds = %11
  call void @llvm.lifetime.start.p0(i64 8, ptr %7) #24
  %21 = load ptr, ptr %4, align 8, !tbaa !7
  %22 = getelementptr inbounds nuw %struct.rb_iseq_struct, ptr %21, i32 0, i32 2
  %23 = load ptr, ptr %22, align 8, !tbaa !12
  %24 = getelementptr inbounds nuw %struct.rb_iseq_constant_body, ptr %23, i32 0, i32 10
  %25 = load ptr, ptr %24, align 8, !tbaa !41
  %26 = load i32, ptr %6, align 4, !tbaa !56
  %27 = zext i32 %26 to i64
  %28 = getelementptr %union.iseq_inline_storage_entry, ptr %25, i64 %27
  store ptr %28, ptr %7, align 8, !tbaa !313
  %29 = load ptr, ptr %7, align 8, !tbaa !313
  %30 = getelementptr inbounds nuw %struct.iseq_inline_iv_cache_entry, ptr %29, i32 0, i32 1
  %31 = load i64, ptr %30, align 8, !tbaa !315
  %32 = icmp ne i64 %31, 0
  br i1 %32, label %33, label %39

33:                                               ; preds = %20
  %34 = load ptr, ptr %5, align 8, !tbaa !312
  %35 = load ptr, ptr %7, align 8, !tbaa !313
  %36 = getelementptr inbounds nuw %struct.iseq_inline_iv_cache_entry, ptr %35, i32 0, i32 1
  %37 = load i64, ptr %36, align 8, !tbaa !315
  %38 = call i32 @rb_id_table_insert(ptr noundef %34, i64 noundef %37, i64 noundef 20)
  br label %39

39:                                               ; preds = %33, %20
  call void @llvm.lifetime.end.p0(i64 8, ptr %7) #24
  br label %40

40:                                               ; preds = %39
  %41 = load i32, ptr %6, align 4, !tbaa !56
  %42 = add i32 %41, 1
  store i32 %42, ptr %6, align 4, !tbaa !56
  br label %11, !llvm.loop !317

43:                                               ; preds = %19
  call void @llvm.lifetime.start.p0(i64 4, ptr %8) #24
  %44 = load ptr, ptr %5, align 8, !tbaa !312
  %45 = call i64 @rb_id_table_size(ptr noundef %44)
  %46 = trunc i64 %45 to i32
  store i32 %46, ptr %8, align 4, !tbaa !56
  call void @llvm.lifetime.start.p0(i64 8, ptr %9) #24
  %47 = load i64, ptr %3, align 8, !tbaa !17
  %48 = call i64 @rb_class_superclass(i64 noundef %47) #25
  store i64 %48, ptr %9, align 8, !tbaa !17
  %49 = load i64, ptr %9, align 8, !tbaa !17
  %50 = inttoptr i64 %49 to ptr
  %51 = getelementptr inbounds nuw %struct.RClass_and_rb_classext_t, ptr %50, i32 0, i32 1
  %52 = getelementptr inbounds nuw %struct.rb_classext_struct, ptr %51, i32 0, i32 14
  %53 = load i32, ptr %52, align 8, !tbaa !318
  %54 = load i32, ptr %8, align 4, !tbaa !56
  %55 = add i32 %54, %53
  store i32 %55, ptr %8, align 4, !tbaa !56
  %56 = load ptr, ptr %5, align 8, !tbaa !312
  call void @rb_id_table_free(ptr noundef %56)
  %57 = load i32, ptr %8, align 4, !tbaa !56
  call void @llvm.lifetime.end.p0(i64 8, ptr %9) #24
  call void @llvm.lifetime.end.p0(i64 4, ptr %8) #24
  call void @llvm.lifetime.end.p0(i64 8, ptr %5) #24
  ret i32 %57
}