; Function Attrs: nounwind sspstrong uwtable
define dso_local i32 @rb_estimate_iv_count(i64 noundef %0, ptr noundef readonly captures(none) %1) local_unnamed_addr #0 {
  %3 = tail call ptr @rb_id_table_create(i64 noundef 0) #20
  %4 = getelementptr inbounds nuw i8, ptr %1, i64 16
  %5 = load ptr, ptr %4, align 8, !tbaa !7
  %6 = getelementptr inbounds nuw i8, ptr %5, i64 244
  %7 = load i32, ptr %6, align 4, !tbaa !38
  %.not15 = icmp eq i32 %7, 0
  br i1 %.not15, label %._crit_edge, label %.lr.ph

._crit_edge:                                      ; preds = %22, %2
  %8 = tail call i64 @rb_id_table_size(ptr noundef %3) #20
  %9 = trunc i64 %8 to i32
  %10 = tail call i64 @rb_class_superclass(i64 noundef %0) #24
  %11 = inttoptr i64 %10 to ptr
  %12 = getelementptr inbounds nuw i8, ptr %11, i64 144
  %13 = load i32, ptr %12, align 8, !tbaa !317
  %14 = add i32 %13, %9
  tail call void @rb_id_table_free(ptr noundef %3) #20
  ret i32 %14

.lr.ph:                                           ; preds = %2, %22
  %15 = phi ptr [ %23, %22 ], [ %5, %2 ]
  %indvars.iv = phi i64 [ %indvars.iv.next, %22 ], [ 0, %2 ]
  %16 = getelementptr inbounds nuw i8, ptr %15, i64 176
  %17 = load ptr, ptr %16, align 8, !tbaa !14
  %18 = getelementptr %union.iseq_inline_storage_entry, ptr %17, i64 %indvars.iv, i32 0, i32 1
  %19 = load i64, ptr %18, align 8, !tbaa !322
  %.not = icmp eq i64 %19, 0
  br i1 %.not, label %22, label %20

20:                                               ; preds = %.lr.ph
  %21 = tail call i32 @rb_id_table_insert(ptr noundef %3, i64 noundef %19, i64 noundef 20) #20
  %.pre = load ptr, ptr %4, align 8, !tbaa !7
  br label %22

22:                                               ; preds = %20, %.lr.ph
  %23 = phi ptr [ %.pre, %20 ], [ %15, %.lr.ph ]
  %indvars.iv.next = add nuw nsw i64 %indvars.iv, 1
  %24 = getelementptr inbounds nuw i8, ptr %23, i64 244
  %25 = load i32, ptr %24, align 4, !tbaa !38
  %26 = zext i32 %25 to i64
  %27 = icmp samesign ult i64 %indvars.iv.next, %26
  br i1 %27, label %.lr.ph, label %._crit_edge, !llvm.loop !324
}